target datalayout = "e-m:e-p270:32:32-p271:32:32-p272:64:64-i64:64-i128:128-f80:128-n8:16:32:64-S128"
target triple = "x86_64-pc-linux-gnu"

%struct.PaUtilHostApiRepresentation = type { %struct.PaUtilPrivatePaFrontHostApiInfo, %struct.PaHostApiInfo, ptr, ptr, ptr, ptr }
%struct.PaUtilPrivatePaFrontHostApiInfo = type { i64 }
%struct.PaHostApiInfo = type { i32, i32, ptr, i32, i32, i32 }
%struct.PaDeviceInfo = type { i32, ptr, i32, i32, i32, double, double, double, double, double }
%struct.PaStreamParameters = type { i32, i32, i64, double, ptr }

; Function Attrs: nounwind uwtable
define i32 @IsFormatSupported(ptr noundef %0, ptr noundef %1, ptr noundef %2, double noundef %3) #0 {
  %5 = alloca i32, align 4
  %6 = alloca ptr, align 8
  %7 = alloca ptr, align 8
  %8 = alloca ptr, align 8
  %9 = alloca double, align 8
  %10 = alloca i32, align 4
  %11 = alloca i32, align 4
  %12 = alloca i64, align 8
  %13 = alloca i64, align 8
  store ptr %0, ptr %6, align 8
  store ptr %1, ptr %7, align 8
  store ptr %2, ptr %8, align 8
  store double %3, ptr %9, align 8
  %14 = load ptr, ptr %7, align 8
  %15 = icmp ne ptr %14, null
  br i1 %15, label %16, label %55

16:                                               ; preds = %4
  %17 = load ptr, ptr %7, align 8
  %18 = getelementptr inbounds nuw %struct.PaStreamParameters, ptr %17, i32 0, i32 1
  %19 = load i32, ptr %18, align 4
  store i32 %19, ptr %10, align 4
  %20 = load ptr, ptr %7, align 8
  %21 = getelementptr inbounds nuw %struct.PaStreamParameters, ptr %20, i32 0, i32 2
  %22 = load i64, ptr %21, align 8
  store i64 %22, ptr %12, align 8
  %23 = load i64, ptr %12, align 8
  %24 = and i64 %23, 65536
  %25 = icmp ne i64 %24, 0
  br i1 %25, label %26, label %27

26:                                               ; preds = %16
  store i32 -9994, ptr %5, align 4
  br label %100

27:                                               ; preds = %16
  %28 = load ptr, ptr %7, align 8
  %29 = getelementptr inbounds nuw %struct.PaStreamParameters, ptr %28, i32 0, i32 0
  %30 = load i32, ptr %29, align 8
  %31 = icmp eq i32 %30, -2
  br i1 %31, label %32, label %33

32:                                               ; preds = %27
  store i32 -9996, ptr %5, align 4
  br label %100

33:                                               ; preds = %27
  %34 = load i32, ptr %10, align 4
  %35 = load ptr, ptr %6, align 8
  %36 = getelementptr inbounds nuw %struct.PaUtilHostApiRepresentation, ptr %35, i32 0, i32 2
  %37 = load ptr, ptr %36, align 8
  %38 = load ptr, ptr %7, align 8
  %39 = getelementptr inbounds nuw %struct.PaStreamParameters, ptr %38, i32 0, i32 0
  %40 = load i32, ptr %39, align 8
  %41 = sext i32 %40 to i64
  %42 = getelementptr inbounds ptr, ptr %37, i64 %41
  %43 = load ptr, ptr %42, align 8
  %44 = getelementptr inbounds nuw %struct.PaDeviceInfo, ptr %43, i32 0, i32 3
  %45 = load i32, ptr %44, align 4
  %46 = icmp sgt i32 %34, %45
  br i1 %46, label %47, label %48

47:                                               ; preds = %33
  store i32 -9998, ptr %5, align 4
  br label %100

48:                                               ; preds = %33
  %49 = load ptr, ptr %7, align 8
  %50 = getelementptr inbounds nuw %struct.PaStreamParameters, ptr %49, i32 0, i32 4
  %51 = load ptr, ptr %50, align 8
  %52 = icmp ne ptr %51, null
  br i1 %52, label %53, label %54

53:                                               ; preds = %48
  store i32 -9984, ptr %5, align 4
  br label %100

54:                                               ; preds = %48
  br label %56

55:                                               ; preds = %4
  store i32 0, ptr %10, align 4
  br label %56

56:                                               ; preds = %55, %54
  %57 = load ptr, ptr %8, align 8
  %58 = icmp ne ptr %57, null
  br i1 %58, label %59, label %98

59:                                               ; preds = %56
  %60 = load ptr, ptr %8, align 8
  %61 = getelementptr inbounds nuw %struct.PaStreamParameters, ptr %60, i32 0, i32 1
  %62 = load i32, ptr %61, align 4
  store i32 %62, ptr %11, align 4
  %63 = load ptr, ptr %8, align 8
  %64 = getelementptr inbounds nuw %struct.PaStreamParameters, ptr %63, i32 0, i32 2
  %65 = load i64, ptr %64, align 8
  store i64 %65, ptr %13, align 8
  %66 = load i64, ptr %13, align 8
  %67 = and i64 %66, 65536
  %68 = icmp ne i64 %67, 0
  br i1 %68, label %69, label %70

69:                                               ; preds = %59
  store i32 -9994, ptr %5, align 4
  br label %100

70:                                               ; preds = %59
  %71 = load ptr, ptr %8, align 8
  %72 = getelementptr inbounds nuw %struct.PaStreamParameters, ptr %71, i32 0, i32 0
  %73 = load i32, ptr %72, align 8
  %74 = icmp eq i32 %73, -2
  br i1 %74, label %75, label %76

75:                                               ; preds = %70
  store i32 -9996, ptr %5, align 4
  br label %100

76:                                               ; preds = %70
  %77 = load i32, ptr %11, align 4
  %78 = load ptr, ptr %6, align 8
  %79 = getelementptr inbounds nuw %struct.PaUtilHostApiRepresentation, ptr %78, i32 0, i32 2
  %80 = load ptr, ptr %79, align 8
  %81 = load ptr, ptr %8, align 8
  %82 = getelementptr inbounds nuw %struct.PaStreamParameters, ptr %81, i32 0, i32 0
  %83 = load i32, ptr %82, align 8
  %84 = sext i32 %83 to i64
  %85 = getelementptr inbounds ptr, ptr %80, i64 %84
  %86 = load ptr, ptr %85, align 8
  %87 = getelementptr inbounds nuw %struct.PaDeviceInfo, ptr %86, i32 0, i32 4
  %88 = load i32, ptr %87, align 8
  %89 = icmp sgt i32 %77, %88
  br i1 %89, label %90, label %91

90:                                               ; preds = %76
  store i32 -9998, ptr %5, align 4
  br label %100

91:                                               ; preds = %76
  %92 = load ptr, ptr %8, align 8
  %93 = getelementptr inbounds nuw %struct.PaStreamParameters, ptr %92, i32 0, i32 4
  %94 = load ptr, ptr %93, align 8
  %95 = icmp ne ptr %94, null
  br i1 %95, label %96, label %97

96:                                               ; preds = %91
  store i32 -9984, ptr %5, align 4
  br label %100

97:                                               ; preds = %91
  br label %99

98:                                               ; preds = %56
  store i32 0, ptr %11, align 4
  br label %99

99:                                               ; preds = %98, %97
  store i32 0, ptr %5, align 4
  br label %100

100:                                              ; preds = %99, %96, %90, %75, %69, %53, %47, %32, %26
  %101 = load i32, ptr %5, align 4
  ret i32 %101
}