; Function Attrs: mustprogress nofree norecurse nosync nounwind willreturn memory(read, inaccessiblemem: none) uwtable
define range(i32 -9998, 1) i32 @IsFormatSupported(ptr nocapture noundef readonly %0, ptr noundef readonly %1, ptr noundef readonly %2, double %3) #6 {
  %.not = icmp eq ptr %1, null
  br i1 %.not, label %26, label %5

5:                                                ; preds = %4
  %6 = getelementptr inbounds nuw i8, ptr %1, i64 4
  %7 = load i32, ptr %6, align 4
  %8 = getelementptr inbounds nuw i8, ptr %1, i64 8
  %9 = load i64, ptr %8, align 8
  %10 = and i64 %9, 65536
  %.not22 = icmp eq i64 %10, 0
  br i1 %.not22, label %11, label %49

11:                                               ; preds = %5
  %12 = load i32, ptr %1, align 8
  %13 = icmp eq i32 %12, -2
  br i1 %13, label %49, label %14

14:                                               ; preds = %11
  %15 = getelementptr inbounds nuw i8, ptr %0, i64 40
  %16 = load ptr, ptr %15, align 8
  %17 = sext i32 %12 to i64
  %18 = getelementptr inbounds ptr, ptr %16, i64 %17
  %19 = load ptr, ptr %18, align 8
  %20 = getelementptr inbounds nuw i8, ptr %19, i64 20
  %21 = load i32, ptr %20, align 4
  %22 = icmp sgt i32 %7, %21
  br i1 %22, label %49, label %23

23:                                               ; preds = %14
  %24 = getelementptr inbounds nuw i8, ptr %1, i64 24
  %25 = load ptr, ptr %24, align 8
  %.not23 = icmp eq ptr %25, null
  br i1 %.not23, label %26, label %49

26:                                               ; preds = %4, %23
  %.not24 = icmp eq ptr %2, null
  br i1 %.not24, label %48, label %27

27:                                               ; preds = %26
  %28 = getelementptr inbounds nuw i8, ptr %2, i64 4
  %29 = load i32, ptr %28, align 4
  %30 = getelementptr inbounds nuw i8, ptr %2, i64 8
  %31 = load i64, ptr %30, align 8
  %32 = and i64 %31, 65536
  %.not25 = icmp eq i64 %32, 0
  br i1 %.not25, label %33, label %49

33:                                               ; preds = %27
  %34 = load i32, ptr %2, align 8
  %35 = icmp eq i32 %34, -2
  br i1 %35, label %49, label %36

36:                                               ; preds = %33
  %37 = getelementptr inbounds nuw i8, ptr %0, i64 40
  %38 = load ptr, ptr %37, align 8
  %39 = sext i32 %34 to i64
  %40 = getelementptr inbounds ptr, ptr %38, i64 %39
  %41 = load ptr, ptr %40, align 8
  %42 = getelementptr inbounds nuw i8, ptr %41, i64 24
  %43 = load i32, ptr %42, align 8
  %44 = icmp sgt i32 %29, %43
  br i1 %44, label %49, label %45

45:                                               ; preds = %36
  %46 = getelementptr inbounds nuw i8, ptr %2, i64 24
  %47 = load ptr, ptr %46, align 8
  %.not26 = icmp eq ptr %47, null
  br i1 %.not26, label %48, label %49

48:                                               ; preds = %26, %45
  br label %49

49:                                               ; preds = %45, %36, %33, %27, %23, %14, %11, %5, %48
  %.0 = phi i32 [ 0, %48 ], [ -9994, %5 ], [ -9996, %11 ], [ -9998, %14 ], [ -9984, %23 ], [ -9994, %27 ], [ -9996, %33 ], [ -9998, %36 ], [ -9984, %45 ]
  ret i32 %.0
}